target datalayout = "e-m:e-p270:32:32-p271:32:32-p272:64:64-i64:64-i128:128-f80:128-n8:16:32:64-S128"
target triple = "x86_64-pc-linux-gnu"

%struct.KRB5KDF_CTX = type { ptr, %struct.PROV_CIPHER, ptr, i64, ptr, i64 }
%struct.PROV_CIPHER = type { ptr, ptr, ptr }
%struct.ossl_param_st = type { ptr, i32, ptr, i64, i64 }

@.str = private unnamed_addr constant [52 x i8] c"../openssl/providers/implementations/kdfs/krb5kdf.c\00", align 1
@.str.3 = private unnamed_addr constant [4 x i8] c"key\00", align 1
@.str.4 = private unnamed_addr constant [9 x i8] c"constant\00", align 1

; Function Attrs: nounwind uwtable
define internal i32 @krb5kdf_set_membuf(ptr noundef %0, ptr noundef %1, ptr noundef %2) #0 {
  %4 = alloca ptr, align 8
  %5 = alloca ptr, align 8
  %6 = alloca ptr, align 8
  store ptr %0, ptr %4, align 8, !tbaa !40
  store ptr %1, ptr %5, align 8, !tbaa !42
  store ptr %2, ptr %6, align 8, !tbaa !20
  %7 = load ptr, ptr %4, align 8, !tbaa !40
  %8 = load ptr, ptr %7, align 8, !tbaa !18
  %9 = load ptr, ptr %5, align 8, !tbaa !42
  %10 = load i64, ptr %9, align 8, !tbaa !19
  call void @CRYPTO_clear_free(ptr noundef %8, i64 noundef %10, ptr noundef @.str, i32 noundef 98)
  %11 = load ptr, ptr %4, align 8, !tbaa !40
  store ptr null, ptr %11, align 8, !tbaa !18
  %12 = load ptr, ptr %5, align 8, !tbaa !42
  store i64 0, ptr %12, align 8, !tbaa !19
  %13 = load ptr, ptr %6, align 8, !tbaa !20
  %14 = load ptr, ptr %4, align 8, !tbaa !40
  %15 = load ptr, ptr %5, align 8, !tbaa !42
  %16 = call i32 @OSSL_PARAM_get_octet_string(ptr noundef %13, ptr noundef %14, i64 noundef 0, ptr noundef %15)
  ret i32 %16
}

; Function Attrs: inlinehint nounwind uwtable
define internal i32 @ossl_param_is_empty(ptr noundef %0) #5 {
  %2 = alloca ptr, align 8
  store ptr %0, ptr %2, align 8, !tbaa !20
  %3 = load ptr, ptr %2, align 8, !tbaa !20
  %4 = icmp eq ptr %3, null
  br i1 %4, label %10, label %5

5:                                                ; preds = %1
  %6 = load ptr, ptr %2, align 8, !tbaa !20
  %7 = getelementptr inbounds nuw %struct.ossl_param_st, ptr %6, i32 0, i32 0
  %8 = load ptr, ptr %7, align 8, !tbaa !38
  %9 = icmp eq ptr %8, null
  br label %10

10:                                               ; preds = %5, %1
  %11 = phi i1 [ true, %1 ], [ %9, %5 ]
  %12 = zext i1 %11 to i32
  ret i32 %12
}

; Function Attrs: nounwind uwtable
define internal i32 @krb5kdf_set_ctx_params(ptr noundef %0, ptr noundef %1) #0 {
  %3 = alloca i32, align 4
  %4 = alloca ptr, align 8
  %5 = alloca ptr, align 8
  %6 = alloca ptr, align 8
  %7 = alloca ptr, align 8
  %8 = alloca ptr, align 8
  %9 = alloca i32, align 4
  store ptr %0, ptr %4, align 8, !tbaa !3
  store ptr %1, ptr %5, align 8, !tbaa !20
  call void @llvm.lifetime.start.p0(i64 8, ptr %6) #6
  call void @llvm.lifetime.start.p0(i64 8, ptr %7) #6
  %10 = load ptr, ptr %4, align 8, !tbaa !3
  store ptr %10, ptr %7, align 8, !tbaa !3
  call void @llvm.lifetime.start.p0(i64 8, ptr %8) #6
  %11 = load ptr, ptr %7, align 8, !tbaa !3
  %12 = getelementptr inbounds nuw %struct.KRB5KDF_CTX, ptr %11, i32 0, i32 0
  %13 = load ptr, ptr %12, align 8, !tbaa !7
  %14 = call ptr @ossl_prov_ctx_get0_libctx(ptr noundef %13)
  store ptr %14, ptr %8, align 8, !tbaa !24
  %15 = load ptr, ptr %5, align 8, !tbaa !20
  %16 = call i32 @ossl_param_is_empty(ptr noundef %15)
  %17 = icmp ne i32 %16, 0
  br i1 %17, label %18, label %19

18:                                               ; preds = %2
  store i32 1, ptr %3, align 4
  store i32 1, ptr %9, align 4
  br label %56

19:                                               ; preds = %2
  %20 = load ptr, ptr %7, align 8, !tbaa !3
  %21 = getelementptr inbounds nuw %struct.KRB5KDF_CTX, ptr %20, i32 0, i32 1
  %22 = load ptr, ptr %5, align 8, !tbaa !20
  %23 = load ptr, ptr %8, align 8, !tbaa !24
  %24 = call i32 @ossl_prov_cipher_load_from_params(ptr noundef %21, ptr noundef %22, ptr noundef %23)
  %25 = icmp ne i32 %24, 0
  br i1 %25, label %27, label %26

26:                                               ; preds = %19
  store i32 0, ptr %3, align 4
  store i32 1, ptr %9, align 4
  br label %56

27:                                               ; preds = %19
  %28 = load ptr, ptr %5, align 8, !tbaa !20
  %29 = call ptr @OSSL_PARAM_locate_const(ptr noundef %28, ptr noundef @.str.3)
  store ptr %29, ptr %6, align 8, !tbaa !20
  %30 = icmp ne ptr %29, null
  br i1 %30, label %31, label %41

31:                                               ; preds = %27
  %32 = load ptr, ptr %7, align 8, !tbaa !3
  %33 = getelementptr inbounds nuw %struct.KRB5KDF_CTX, ptr %32, i32 0, i32 2
  %34 = load ptr, ptr %7, align 8, !tbaa !3
  %35 = getelementptr inbounds nuw %struct.KRB5KDF_CTX, ptr %34, i32 0, i32 3
  %36 = load ptr, ptr %6, align 8, !tbaa !20
  %37 = call i32 @krb5kdf_set_membuf(ptr noundef %33, ptr noundef %35, ptr noundef %36)
  %38 = icmp ne i32 %37, 0
  br i1 %38, label %40, label %39

39:                                               ; preds = %31
  store i32 0, ptr %3, align 4
  store i32 1, ptr %9, align 4
  br label %56

40:                                               ; preds = %31
  br label %41

41:                                               ; preds = %40, %27
  %42 = load ptr, ptr %5, align 8, !tbaa !20
  %43 = call ptr @OSSL_PARAM_locate_const(ptr noundef %42, ptr noundef @.str.4)
  store ptr %43, ptr %6, align 8, !tbaa !20
  %44 = icmp ne ptr %43, null
  br i1 %44, label %45, label %55

45:                                               ; preds = %41
  %46 = load ptr, ptr %7, align 8, !tbaa !3
  %47 = getelementptr inbounds nuw %struct.KRB5KDF_CTX, ptr %46, i32 0, i32 4
  %48 = load ptr, ptr %7, align 8, !tbaa !3
  %49 = getelementptr inbounds nuw %struct.KRB5KDF_CTX, ptr %48, i32 0, i32 5
  %50 = load ptr, ptr %6, align 8, !tbaa !20
  %51 = call i32 @krb5kdf_set_membuf(ptr noundef %47, ptr noundef %49, ptr noundef %50)
  %52 = icmp ne i32 %51, 0
  br i1 %52, label %54, label %53

53:                                               ; preds = %45
  store i32 0, ptr %3, align 4
  store i32 1, ptr %9, align 4
  br label %56

54:                                               ; preds = %45
  br label %55

55:                                               ; preds = %54, %41
  store i32 1, ptr %3, align 4
  store i32 1, ptr %9, align 4
  br label %56

56:                                               ; preds = %55, %53, %39, %26, %18
  call void @llvm.lifetime.end.p0(i64 8, ptr %8) #6
  call void @llvm.lifetime.end.p0(i64 8, ptr %7) #6
  call void @llvm.lifetime.end.p0(i64 8, ptr %6) #6
  %57 = load i32, ptr %3, align 4
  ret i32 %57
}