; Function Attrs: nounwind uwtable
define internal range(i32 0, 2) i32 @krb5kdf_set_ctx_params(ptr noundef %0, ptr noundef %1) #0 {
  %3 = load ptr, ptr %0, align 8, !tbaa !3
  %4 = tail call ptr @ossl_prov_ctx_get0_libctx(ptr noundef %3) #7
  %5 = icmp eq ptr %1, null
  br i1 %5, label %ossl_param_is_empty.exit.thread, label %ossl_param_is_empty.exit

ossl_param_is_empty.exit:                         ; preds = %2
  %6 = load ptr, ptr %1, align 8, !tbaa !26
  %.not = icmp eq ptr %6, null
  br i1 %.not, label %ossl_param_is_empty.exit.thread, label %7

7:                                                ; preds = %ossl_param_is_empty.exit
  %8 = getelementptr inbounds nuw i8, ptr %0, i64 8
  %9 = tail call i32 @ossl_prov_cipher_load_from_params(ptr noundef nonnull %8, ptr noundef nonnull %1, ptr noundef %4) #7
  %.not16 = icmp eq i32 %9, 0
  br i1 %.not16, label %ossl_param_is_empty.exit.thread, label %10

10:                                               ; preds = %7
  %11 = tail call ptr @OSSL_PARAM_locate_const(ptr noundef nonnull %1, ptr noundef nonnull @.str.3) #7
  %.not17 = icmp eq ptr %11, null
  br i1 %.not17, label %18, label %12

12:                                               ; preds = %10
  %13 = getelementptr inbounds nuw i8, ptr %0, i64 32
  %14 = getelementptr inbounds nuw i8, ptr %0, i64 40
  %15 = load ptr, ptr %13, align 8, !tbaa !28
  %16 = load i64, ptr %14, align 8, !tbaa !29
  tail call void @CRYPTO_clear_free(ptr noundef %15, i64 noundef %16, ptr noundef nonnull @.str, i32 noundef 98) #7
  tail call void @llvm.memset.p0.i64(ptr noundef nonnull align 8 dereferenceable(16) %13, i8 0, i64 16, i1 false)
  %17 = tail call i32 @OSSL_PARAM_get_octet_string(ptr noundef nonnull %11, ptr noundef nonnull %13, i64 noundef 0, ptr noundef nonnull %14) #7
  %.not18 = icmp eq i32 %17, 0
  br i1 %.not18, label %ossl_param_is_empty.exit.thread, label %18

18:                                               ; preds = %12, %10
  %19 = tail call ptr @OSSL_PARAM_locate_const(ptr noundef nonnull %1, ptr noundef nonnull @.str.4) #7
  %.not19 = icmp eq ptr %19, null
  br i1 %.not19, label %26, label %20

20:                                               ; preds = %18
  %21 = getelementptr inbounds nuw i8, ptr %0, i64 48
  %22 = getelementptr inbounds nuw i8, ptr %0, i64 56
  %23 = load ptr, ptr %21, align 8, !tbaa !28
  %24 = load i64, ptr %22, align 8, !tbaa !29
  tail call void @CRYPTO_clear_free(ptr noundef %23, i64 noundef %24, ptr noundef nonnull @.str, i32 noundef 98) #7
  tail call void @llvm.memset.p0.i64(ptr noundef nonnull align 8 dereferenceable(16) %21, i8 0, i64 16, i1 false)
  %25 = tail call i32 @OSSL_PARAM_get_octet_string(ptr noundef nonnull %19, ptr noundef nonnull %21, i64 noundef 0, ptr noundef nonnull %22) #7
  %.not20 = icmp eq i32 %25, 0
  br i1 %.not20, label %ossl_param_is_empty.exit.thread, label %26

26:                                               ; preds = %20, %18
  br label %ossl_param_is_empty.exit.thread

ossl_param_is_empty.exit.thread:                  ; preds = %2, %20, %12, %7, %ossl_param_is_empty.exit, %26
  %.0 = phi i32 [ 1, %26 ], [ 1, %ossl_param_is_empty.exit ], [ 0, %7 ], [ 0, %12 ], [ 0, %20 ], [ 1, %2 ]
  ret i32 %.0
}